target datalayout = "e-m:e-p270:32:32-p271:32:32-p272:64:64-i64:64-i128:128-f80:128-n8:16:32:64-S128"
target triple = "x86_64-unknown-linux-gnu"

%"class.std::__cxx11::basic_string" = type { %"struct.std::__cxx11::basic_string<char>::_Alloc_hider", i64, %union.anon }
%"struct.std::__cxx11::basic_string<char>::_Alloc_hider" = type { ptr }
%union.anon = type { i64, [8 x i8] }
%"struct.Assimp::LWO::Texture" = type { %"class.std::__cxx11::basic_string", i32, float, i32, %"class.std::__cxx11::basic_string", i32, i8, i32, i8, i32, i32, float, float, i32, i32, %"class.std::__cxx11::basic_string" }
%"class.std::__cxx11::_List_base" = type { %"struct.std::__cxx11::_List_base<Assimp::LWO::Texture, std::allocator<Assimp::LWO::Texture>>::_List_impl" }
%"struct.std::__cxx11::_List_base<Assimp::LWO::Texture, std::allocator<Assimp::LWO::Texture>>::_List_impl" = type { %"struct.std::__detail::_List_node_header" }
%"struct.std::__detail::_List_node_header" = type { %"struct.std::__detail::_List_node_base", i64 }
%"struct.std::__detail::_List_node_base" = type { ptr, ptr }
%"struct.std::_List_iterator" = type { ptr }
%"struct.Assimp::LWO::VMapEntry" = type { ptr, %"class.std::__cxx11::basic_string", i32, %"class.std::vector.17", %"class.std::vector.22" }
%"class.std::vector.17" = type { %"struct.std::_Vector_base.18" }
%"struct.std::_Vector_base.18" = type { %"struct.std::_Vector_base<float, std::allocator<float>>::_Vector_impl" }
%"struct.std::_Vector_base<float, std::allocator<float>>::_Vector_impl" = type { %"struct.std::_Vector_base<float, std::allocator<float>>::_Vector_impl_data" }
%"struct.std::_Vector_base<float, std::allocator<float>>::_Vector_impl_data" = type { ptr, ptr, ptr }
%"class.std::vector.22" = type { %"struct.std::_Bvector_base" }
%"struct.std::_Bvector_base" = type { %"struct.std::_Bvector_base<std::allocator<bool>>::_Bvector_impl" }
%"struct.std::_Bvector_base<std::allocator<bool>>::_Bvector_impl" = type { %"struct.std::_Bvector_base<std::allocator<bool>>::_Bvector_impl_data" }
%"struct.std::_Bvector_base<std::allocator<bool>>::_Bvector_impl_data" = type { %"struct.std::_Bit_iterator", %"struct.std::_Bit_iterator", ptr }
%"struct.std::_Bit_iterator" = type { %"struct.std::_Bit_iterator_base.base", [4 x i8] }
%"struct.std::_Bit_iterator_base.base" = type <{ ptr, i32 }>
%"struct.std::_List_node" = type { %"struct.std::__detail::_List_node_base", %"struct.__gnu_cxx::__aligned_membuf" }
%"struct.__gnu_cxx::__aligned_membuf" = type { [152 x i8] }

@.str.36 = private unnamed_addr constant [68 x i8] c"LWO: Channel mismatch, would need to duplicate surface [design bug]\00", align 1

; Function Attrs: mustprogress nounwind uwtable
define linkonce_odr hidden noundef ptr @_ZN9__gnu_cxx16__aligned_membufIN6Assimp3LWO7TextureEE7_M_addrEv(ptr noundef nonnull align 8 dereferenceable(152) %this) #0 comdat align 2 {
entry:
  %this.addr = alloca ptr, align 8
  store ptr %this, ptr %this.addr, align 8
  %this1 = load ptr, ptr %this.addr, align 8
  %_M_storage = getelementptr inbounds %"struct.__gnu_cxx::__aligned_membuf", ptr %this1, i32 0, i32 0
  ret ptr %_M_storage
}

; Function Attrs: mustprogress nounwind uwtable
define linkonce_odr hidden noundef ptr @_ZN9__gnu_cxx16__aligned_membufIN6Assimp3LWO7TextureEE6_M_ptrEv(ptr noundef nonnull align 8 dereferenceable(152) %this) #0 comdat align 2 {
entry:
  %this.addr = alloca ptr, align 8
  store ptr %this, ptr %this.addr, align 8
  %this1 = load ptr, ptr %this.addr, align 8
  %call = call noundef ptr @_ZN9__gnu_cxx16__aligned_membufIN6Assimp3LWO7TextureEE7_M_addrEv(ptr noundef nonnull align 8 dereferenceable(152) %this1) #14
  ret ptr %call
}

; Function Attrs: noreturn nounwind uwtable
define linkonce_odr hidden void @__clang_call_terminate(ptr noundef %0) #8 comdat {
  %2 = call ptr @__cxa_begin_catch(ptr %0) #14
  call void @_ZSt9terminatev() #13
  unreachable
}

; Function Attrs: mustprogress nounwind uwtable
define linkonce_odr noundef i32 @_ZNSt11char_traitsIcE7compareEPKcS2_m(ptr noundef %__s1, ptr noundef %__s2, i64 noundef %__n) #0 comdat align 2 {
entry:
  %retval = alloca i32, align 4
  %__s1.addr = alloca ptr, align 8
  %__s2.addr = alloca ptr, align 8
  %__n.addr = alloca i64, align 8
  store ptr %__s1, ptr %__s1.addr, align 8
  store ptr %__s2, ptr %__s2.addr, align 8
  store i64 %__n, ptr %__n.addr, align 8
  %0 = load i64, ptr %__n.addr, align 8
  %cmp = icmp eq i64 %0, 0
  br i1 %cmp, label %if.then, label %if.end

if.then:                                          ; preds = %entry
  store i32 0, ptr %retval, align 4
  br label %return

if.end:                                           ; preds = %entry
  %1 = load ptr, ptr %__s1.addr, align 8
  %2 = load ptr, ptr %__s2.addr, align 8
  %3 = load i64, ptr %__n.addr, align 8
  %call = call i32 @memcmp(ptr noundef %1, ptr noundef %2, i64 noundef %3) #14
  store i32 %call, ptr %retval, align 4
  br label %return

return:                                           ; preds = %if.end, %if.then
  %4 = load i32, ptr %retval, align 4
  ret i32 %4
}

; Function Attrs: mustprogress nounwind uwtable
define linkonce_odr hidden noundef ptr @_ZNSt10_List_nodeIN6Assimp3LWO7TextureEE9_M_valptrEv(ptr noundef nonnull align 8 dereferenceable(168) %this) #0 comdat align 2 {
entry:
  %this.addr = alloca ptr, align 8
  store ptr %this, ptr %this.addr, align 8
  %this1 = load ptr, ptr %this.addr, align 8
  %_M_storage = getelementptr inbounds %"struct.std::_List_node", ptr %this1, i32 0, i32 1
  %call = call noundef ptr @_ZN9__gnu_cxx16__aligned_membufIN6Assimp3LWO7TextureEE6_M_ptrEv(ptr noundef nonnull align 8 dereferenceable(152) %_M_storage) #14
  ret ptr %call
}

; Function Attrs: mustprogress nounwind uwtable
define linkonce_odr hidden void @_ZNSt14_List_iteratorIN6Assimp3LWO7TextureEEC2EPNSt8__detail15_List_node_baseE(ptr noundef nonnull align 8 dereferenceable(8) %this, ptr noundef %__x) unnamed_addr #0 comdat align 2 {
entry:
  %this.addr = alloca ptr, align 8
  %__x.addr = alloca ptr, align 8
  store ptr %this, ptr %this.addr, align 8
  store ptr %__x, ptr %__x.addr, align 8
  %this1 = load ptr, ptr %this.addr, align 8
  %_M_node = getelementptr inbounds %"struct.std::_List_iterator", ptr %this1, i32 0, i32 0
  %0 = load ptr, ptr %__x.addr, align 8
  store ptr %0, ptr %_M_node, align 8
  ret void
}

; Function Attrs: mustprogress nounwind uwtable
define linkonce_odr hidden noundef nonnull align 8 dereferenceable(8) ptr @_ZNSt14_List_iteratorIN6Assimp3LWO7TextureEEppEv(ptr noundef nonnull align 8 dereferenceable(8) %this) #0 comdat align 2 {
entry:
  %this.addr = alloca ptr, align 8
  store ptr %this, ptr %this.addr, align 8
  %this1 = load ptr, ptr %this.addr, align 8
  %_M_node = getelementptr inbounds %"struct.std::_List_iterator", ptr %this1, i32 0, i32 0
  %0 = load ptr, ptr %_M_node, align 8
  %_M_next = getelementptr inbounds %"struct.std::__detail::_List_node_base", ptr %0, i32 0, i32 0
  %1 = load ptr, ptr %_M_next, align 8
  %_M_node2 = getelementptr inbounds %"struct.std::_List_iterator", ptr %this1, i32 0, i32 0
  store ptr %1, ptr %_M_node2, align 8
  ret ptr %this1
}

; Function Attrs: mustprogress nounwind uwtable
define linkonce_odr noundef zeroext i1 @_ZSteqIcEN9__gnu_cxx11__enable_ifIXsr9__is_charIT_EE7__valueEbE6__typeERKNSt7__cxx1112basic_stringIS2_St11char_traitsIS2_ESaIS2_EEESC_(ptr noundef nonnull align 8 dereferenceable(32) %__lhs, ptr noundef nonnull align 8 dereferenceable(32) %__rhs) #0 comdat personality ptr @__gxx_personality_v0 {
entry:
  %__lhs.addr = alloca ptr, align 8
  %__rhs.addr = alloca ptr, align 8
  store ptr %__lhs, ptr %__lhs.addr, align 8
  store ptr %__rhs, ptr %__rhs.addr, align 8
  %0 = load ptr, ptr %__lhs.addr, align 8
  %call = call noundef i64 @_ZNKSt7__cxx1112basic_stringIcSt11char_traitsIcESaIcEE4sizeEv(ptr noundef nonnull align 8 dereferenceable(32) %0) #14
  %1 = load ptr, ptr %__rhs.addr, align 8
  %call1 = call noundef i64 @_ZNKSt7__cxx1112basic_stringIcSt11char_traitsIcESaIcEE4sizeEv(ptr noundef nonnull align 8 dereferenceable(32) %1) #14
  %cmp = icmp eq i64 %call, %call1
  br i1 %cmp, label %land.rhs, label %land.end

land.rhs:                                         ; preds = %entry
  %2 = load ptr, ptr %__lhs.addr, align 8
  %call2 = call noundef ptr @_ZNKSt7__cxx1112basic_stringIcSt11char_traitsIcESaIcEE4dataEv(ptr noundef nonnull align 8 dereferenceable(32) %2) #14
  %3 = load ptr, ptr %__rhs.addr, align 8
  %call3 = call noundef ptr @_ZNKSt7__cxx1112basic_stringIcSt11char_traitsIcESaIcEE4dataEv(ptr noundef nonnull align 8 dereferenceable(32) %3) #14
  %4 = load ptr, ptr %__lhs.addr, align 8
  %call4 = call noundef i64 @_ZNKSt7__cxx1112basic_stringIcSt11char_traitsIcESaIcEE4sizeEv(ptr noundef nonnull align 8 dereferenceable(32) %4) #14
  %call5 = invoke noundef i32 @_ZNSt11char_traitsIcE7compareEPKcS2_m(ptr noundef %call2, ptr noundef %call3, i64 noundef %call4)
          to label %invoke.cont unwind label %terminate.lpad

invoke.cont:                                      ; preds = %land.rhs
  %tobool = icmp ne i32 %call5, 0
  %lnot = xor i1 %tobool, true
  br label %land.end

land.end:                                         ; preds = %invoke.cont, %entry
  %5 = phi i1 [ false, %entry ], [ %lnot, %invoke.cont ]
  ret i1 %5

terminate.lpad:                                   ; preds = %land.rhs
  %6 = landingpad { ptr, i32 }
          catch ptr null
  %7 = extractvalue { ptr, i32 } %6, 0
  call void @__clang_call_terminate(ptr %7) #13
  unreachable
}

; Function Attrs: mustprogress nounwind uwtable
define linkonce_odr hidden noundef nonnull align 8 dereferenceable(152) ptr @_ZNKSt14_List_iteratorIN6Assimp3LWO7TextureEEdeEv(ptr noundef nonnull align 8 dereferenceable(8) %this) #0 comdat align 2 {
entry:
  %this.addr = alloca ptr, align 8
  store ptr %this, ptr %this.addr, align 8
  %this1 = load ptr, ptr %this.addr, align 8
  %_M_node = getelementptr inbounds %"struct.std::_List_iterator", ptr %this1, i32 0, i32 0
  %0 = load ptr, ptr %_M_node, align 8
  %call = call noundef ptr @_ZNSt10_List_nodeIN6Assimp3LWO7TextureEE9_M_valptrEv(ptr noundef nonnull align 8 dereferenceable(168) %0)
  ret ptr %call
}

; Function Attrs: mustprogress nounwind uwtable
define linkonce_odr noundef zeroext i1 @_ZStneRKSt14_List_iteratorIN6Assimp3LWO7TextureEES5_(ptr noundef nonnull align 8 dereferenceable(8) %__x, ptr noundef nonnull align 8 dereferenceable(8) %__y) #0 comdat {
entry:
  %__x.addr = alloca ptr, align 8
  %__y.addr = alloca ptr, align 8
  store ptr %__x, ptr %__x.addr, align 8
  store ptr %__y, ptr %__y.addr, align 8
  %0 = load ptr, ptr %__x.addr, align 8
  %_M_node = getelementptr inbounds %"struct.std::_List_iterator", ptr %0, i32 0, i32 0
  %1 = load ptr, ptr %_M_node, align 8
  %2 = load ptr, ptr %__y.addr, align 8
  %_M_node1 = getelementptr inbounds %"struct.std::_List_iterator", ptr %2, i32 0, i32 0
  %3 = load ptr, ptr %_M_node1, align 8
  %cmp = icmp ne ptr %1, %3
  ret i1 %cmp
}

; Function Attrs: mustprogress nounwind uwtable
define linkonce_odr hidden ptr @_ZNSt7__cxx114listIN6Assimp3LWO7TextureESaIS3_EE3endEv(ptr noundef nonnull align 8 dereferenceable(24) %this) #0 comdat align 2 {
entry:
  %retval = alloca %"struct.std::_List_iterator", align 8
  %this.addr = alloca ptr, align 8
  store ptr %this, ptr %this.addr, align 8
  %this1 = load ptr, ptr %this.addr, align 8
  %_M_impl = getelementptr inbounds %"class.std::__cxx11::_List_base", ptr %this1, i32 0, i32 0
  %_M_node = getelementptr inbounds %"struct.std::__cxx11::_List_base<Assimp::LWO::Texture, std::allocator<Assimp::LWO::Texture>>::_List_impl", ptr %_M_impl, i32 0, i32 0
  call void @_ZNSt14_List_iteratorIN6Assimp3LWO7TextureEEC2EPNSt8__detail15_List_node_baseE(ptr noundef nonnull align 8 dereferenceable(8) %retval, ptr noundef %_M_node) #14
  %coerce.dive = getelementptr inbounds %"struct.std::_List_iterator", ptr %retval, i32 0, i32 0
  %0 = load ptr, ptr %coerce.dive, align 8
  ret ptr %0
}

; Function Attrs: mustprogress nounwind uwtable
define linkonce_odr hidden ptr @_ZNSt7__cxx114listIN6Assimp3LWO7TextureESaIS3_EE5beginEv(ptr noundef nonnull align 8 dereferenceable(24) %this) #0 comdat align 2 {
entry:
  %retval = alloca %"struct.std::_List_iterator", align 8
  %this.addr = alloca ptr, align 8
  store ptr %this, ptr %this.addr, align 8
  %this1 = load ptr, ptr %this.addr, align 8
  %_M_impl = getelementptr inbounds %"class.std::__cxx11::_List_base", ptr %this1, i32 0, i32 0
  %_M_node = getelementptr inbounds %"struct.std::__cxx11::_List_base<Assimp::LWO::Texture, std::allocator<Assimp::LWO::Texture>>::_List_impl", ptr %_M_impl, i32 0, i32 0
  %_M_next = getelementptr inbounds %"struct.std::__detail::_List_node_base", ptr %_M_node, i32 0, i32 0
  %0 = load ptr, ptr %_M_next, align 8
  call void @_ZNSt14_List_iteratorIN6Assimp3LWO7TextureEEC2EPNSt8__detail15_List_node_baseE(ptr noundef nonnull align 8 dereferenceable(8) %retval, ptr noundef %0) #14
  %coerce.dive = getelementptr inbounds %"struct.std::_List_iterator", ptr %retval, i32 0, i32 0
  %1 = load ptr, ptr %coerce.dive, align 8
  ret ptr %1
}

; Function Attrs: mustprogress uwtable
define hidden noundef signext i8 @_ZN6Assimp11LWOImporter14FindUVChannelsERNSt7__cxx114listINS_3LWO7TextureESaIS4_EEERNS3_5LayerERNS3_9UVChannelEj(ptr noundef nonnull align 8 dereferenceable(233) %this, ptr noundef nonnull align 8 dereferenceable(24) %list, ptr noundef nonnull align 8 dereferenceable(341) %0, ptr noundef nonnull align 8 dereferenceable(112) %uv, i32 noundef %next) #2 align 2 {
entry:
  %this.addr = alloca ptr, align 8
  %list.addr = alloca ptr, align 8
  %.addr = alloca ptr, align 8
  %uv.addr = alloca ptr, align 8
  %next.addr = alloca i32, align 4
  %ret = alloca i8, align 1
  %__range1 = alloca ptr, align 8
  %__begin1 = alloca %"struct.std::_List_iterator", align 8
  %__end1 = alloca %"struct.std::_List_iterator", align 8
  %texture = alloca ptr, align 8
  store ptr %this, ptr %this.addr, align 8
  store ptr %list, ptr %list.addr, align 8
  store ptr %0, ptr %.addr, align 8
  store ptr %uv, ptr %uv.addr, align 8
  store i32 %next, ptr %next.addr, align 4
  store i8 0, ptr %ret, align 1
  %1 = load ptr, ptr %list.addr, align 8
  store ptr %1, ptr %__range1, align 8
  %2 = load ptr, ptr %__range1, align 8
  %call = call ptr @_ZNSt7__cxx114listIN6Assimp3LWO7TextureESaIS3_EE5beginEv(ptr noundef nonnull align 8 dereferenceable(24) %2) #14
  %coerce.dive = getelementptr inbounds %"struct.std::_List_iterator", ptr %__begin1, i32 0, i32 0
  store ptr %call, ptr %coerce.dive, align 8
  %3 = load ptr, ptr %__range1, align 8
  %call2 = call ptr @_ZNSt7__cxx114listIN6Assimp3LWO7TextureESaIS3_EE3endEv(ptr noundef nonnull align 8 dereferenceable(24) %3) #14
  %coerce.dive3 = getelementptr inbounds %"struct.std::_List_iterator", ptr %__end1, i32 0, i32 0
  store ptr %call2, ptr %coerce.dive3, align 8
  br label %for.cond

for.cond:                                         ; preds = %for.inc, %entry
  %call4 = call noundef zeroext i1 @_ZStneRKSt14_List_iteratorIN6Assimp3LWO7TextureEES5_(ptr noundef nonnull align 8 dereferenceable(8) %__begin1, ptr noundef nonnull align 8 dereferenceable(8) %__end1) #14
  br i1 %call4, label %for.body, label %for.end

for.body:                                         ; preds = %for.cond
  %call5 = call noundef nonnull align 8 dereferenceable(152) ptr @_ZNKSt14_List_iteratorIN6Assimp3LWO7TextureEEdeEv(ptr noundef nonnull align 8 dereferenceable(8) %__begin1) #14
  store ptr %call5, ptr %texture, align 8
  %4 = load ptr, ptr %texture, align 8
  %enabled = getelementptr inbounds %"struct.Assimp::LWO::Texture", ptr %4, i32 0, i32 6
  %5 = load i8, ptr %enabled, align 4
  %tobool = trunc i8 %5 to i1
  br i1 %tobool, label %lor.lhs.false, label %if.then

lor.lhs.false:                                    ; preds = %for.body
  %6 = load ptr, ptr %texture, align 8
  %bCanUse = getelementptr inbounds %"struct.Assimp::LWO::Texture", ptr %6, i32 0, i32 8
  %7 = load i8, ptr %bCanUse, align 4
  %tobool6 = trunc i8 %7 to i1
  br i1 %tobool6, label %lor.lhs.false7, label %if.then

lor.lhs.false7:                                   ; preds = %lor.lhs.false
  %8 = load ptr, ptr %texture, align 8
  %mapMode = getelementptr inbounds %"struct.Assimp::LWO::Texture", ptr %8, i32 0, i32 9
  %9 = load i32, ptr %mapMode, align 8
  %cmp = icmp ne i32 %9, 5
  br i1 %cmp, label %if.then, label %if.end

if.then:                                          ; preds = %lor.lhs.false7, %lor.lhs.false, %for.body
  br label %for.inc

if.end:                                           ; preds = %lor.lhs.false7
  %10 = load ptr, ptr %texture, align 8
  %mUVChannelIndex = getelementptr inbounds %"struct.Assimp::LWO::Texture", ptr %10, i32 0, i32 4
  %11 = load ptr, ptr %uv.addr, align 8
  %name = getelementptr inbounds %"struct.Assimp::LWO::VMapEntry", ptr %11, i32 0, i32 1
  %call8 = call noundef zeroext i1 @_ZSteqIcEN9__gnu_cxx11__enable_ifIXsr9__is_charIT_EE7__valueEbE6__typeERKNSt7__cxx1112basic_stringIS2_St11char_traitsIS2_ESaIS2_EEESC_(ptr noundef nonnull align 8 dereferenceable(32) %mUVChannelIndex, ptr noundef nonnull align 8 dereferenceable(32) %name) #14
  br i1 %call8, label %if.then9, label %if.end18

if.then9:                                         ; preds = %if.end
  store i8 1, ptr %ret, align 1
  %12 = load ptr, ptr %texture, align 8
  %mRealUVIndex = getelementptr inbounds %"struct.Assimp::LWO::Texture", ptr %12, i32 0, i32 5
  %13 = load i32, ptr %mRealUVIndex, align 8
  %cmp10 = icmp eq i32 %13, -1
  br i1 %cmp10, label %if.then14, label %lor.lhs.false11

lor.lhs.false11:                                  ; preds = %if.then9
  %14 = load ptr, ptr %texture, align 8
  %mRealUVIndex12 = getelementptr inbounds %"struct.Assimp::LWO::Texture", ptr %14, i32 0, i32 5
  %15 = load i32, ptr %mRealUVIndex12, align 8
  %16 = load i32, ptr %next.addr, align 4
  %cmp13 = icmp eq i32 %15, %16
  br i1 %cmp13, label %if.then14, label %if.else

if.then14:                                        ; preds = %lor.lhs.false11, %if.then9
  %17 = load i32, ptr %next.addr, align 4
  %18 = load ptr, ptr %texture, align 8
  %mRealUVIndex15 = getelementptr inbounds %"struct.Assimp::LWO::Texture", ptr %18, i32 0, i32 5
  store i32 %17, ptr %mRealUVIndex15, align 8
  br label %if.end17

if.else:                                          ; preds = %lor.lhs.false11
  %call16 = call noundef ptr @_ZN6Assimp13DefaultLogger3getEv()
  call void @_ZN6Assimp6Logger4warnEPKc(ptr noundef nonnull align 8 dereferenceable(12) %call16, ptr noundef @.str.36)
  br label %if.end17

if.end17:                                         ; preds = %if.else, %if.then14
  br label %if.end18

if.end18:                                         ; preds = %if.end17, %if.end
  br label %for.inc

for.inc:                                          ; preds = %if.end18, %if.then
  %call19 = call noundef nonnull align 8 dereferenceable(8) ptr @_ZNSt14_List_iteratorIN6Assimp3LWO7TextureEEppEv(ptr noundef nonnull align 8 dereferenceable(8) %__begin1) #14
  br label %for.cond

for.end:                                          ; preds = %for.cond
  %19 = load i8, ptr %ret, align 1
  ret i8 %19
}