; Function Attrs: mustprogress uwtable
define hidden noundef signext i8 @_ZN6Assimp11LWOImporter14FindUVChannelsERNSt7__cxx114listINS_3LWO7TextureESaIS4_EEERNS3_5LayerERNS3_9UVChannelEj(ptr nocapture noundef nonnull readnone align 8 dereferenceable(233) %this, ptr noundef nonnull readonly align 8 dereferenceable(24) %list, ptr nocapture noundef nonnull readnone align 8 dereferenceable(341) %0, ptr noundef nonnull align 8 dereferenceable(112) %uv, i32 noundef %next) local_unnamed_addr #0 align 2 personality ptr @__gxx_personality_v0 {
entry:
  %__begin1.sroa.0.014 = load ptr, ptr %list, align 8
  %cmp.i.not15 = icmp eq ptr %__begin1.sroa.0.014, %list
  br i1 %cmp.i.not15, label %for.end, label %for.body.lr.ph

for.body.lr.ph:                                   ; preds = %entry
  %name = getelementptr inbounds i8, ptr %uv, i64 8
  br label %for.body

for.body:                                         ; preds = %for.body.lr.ph, %for.inc
  %__begin1.sroa.0.017 = phi ptr [ %__begin1.sroa.0.014, %for.body.lr.ph ], [ %__begin1.sroa.0.0, %for.inc ]
  %ret.016 = phi i8 [ 0, %for.body.lr.ph ], [ %ret.1, %for.inc ]
  %enabled = getelementptr inbounds i8, ptr %__begin1.sroa.0.017, i64 100
  %1 = load i8, ptr %enabled, align 4
  %2 = and i8 %1, 1
  %tobool.not = icmp eq i8 %2, 0
  br i1 %tobool.not, label %for.inc, label %lor.lhs.false

lor.lhs.false:                                    ; preds = %for.body
  %bCanUse = getelementptr inbounds i8, ptr %__begin1.sroa.0.017, i64 108
  %3 = load i8, ptr %bCanUse, align 4
  %4 = and i8 %3, 1
  %tobool6.not = icmp ne i8 %4, 0
  %mapMode = getelementptr inbounds i8, ptr %__begin1.sroa.0.017, i64 112
  %5 = load i32, ptr %mapMode, align 8
  %cmp.not = icmp eq i32 %5, 5
  %or.cond = select i1 %tobool6.not, i1 %cmp.not, i1 false
  br i1 %or.cond, label %if.end, label %for.inc

if.end:                                           ; preds = %lor.lhs.false
  %mUVChannelIndex = getelementptr inbounds i8, ptr %__begin1.sroa.0.017, i64 64
  %call.i = tail call noundef i64 @_ZNKSt7__cxx1112basic_stringIcSt11char_traitsIcESaIcEE4sizeEv(ptr noundef nonnull align 8 dereferenceable(32) %mUVChannelIndex) #15
  %call1.i = tail call noundef i64 @_ZNKSt7__cxx1112basic_stringIcSt11char_traitsIcESaIcEE4sizeEv(ptr noundef nonnull align 8 dereferenceable(32) %name) #15
  %cmp.i10 = icmp eq i64 %call.i, %call1.i
  br i1 %cmp.i10, label %land.rhs.i, label %for.inc

land.rhs.i:                                       ; preds = %if.end
  %call2.i = tail call noundef ptr @_ZNKSt7__cxx1112basic_stringIcSt11char_traitsIcESaIcEE4dataEv(ptr noundef nonnull align 8 dereferenceable(32) %mUVChannelIndex) #15
  %call3.i = tail call noundef ptr @_ZNKSt7__cxx1112basic_stringIcSt11char_traitsIcESaIcEE4dataEv(ptr noundef nonnull align 8 dereferenceable(32) %name) #15
  %call4.i = tail call noundef i64 @_ZNKSt7__cxx1112basic_stringIcSt11char_traitsIcESaIcEE4sizeEv(ptr noundef nonnull align 8 dereferenceable(32) %mUVChannelIndex) #15
  %cmp.i.i = icmp eq i64 %call4.i, 0
  br i1 %cmp.i.i, label %if.then9, label %_ZSteqIcEN9__gnu_cxx11__enable_ifIXsr9__is_charIT_EE7__valueEbE6__typeERKNSt7__cxx1112basic_stringIS2_St11char_traitsIS2_ESaIS2_EEESC_.exit

_ZSteqIcEN9__gnu_cxx11__enable_ifIXsr9__is_charIT_EE7__valueEbE6__typeERKNSt7__cxx1112basic_stringIS2_St11char_traitsIS2_ESaIS2_EEESC_.exit: ; preds = %land.rhs.i
  %bcmp.i = tail call i32 @bcmp(ptr %call2.i, ptr %call3.i, i64 %call4.i)
  %6 = icmp eq i32 %bcmp.i, 0
  br i1 %6, label %if.then9, label %for.inc

if.then9:                                         ; preds = %land.rhs.i, %_ZSteqIcEN9__gnu_cxx11__enable_ifIXsr9__is_charIT_EE7__valueEbE6__typeERKNSt7__cxx1112basic_stringIS2_St11char_traitsIS2_ESaIS2_EEESC_.exit
  %mRealUVIndex = getelementptr inbounds i8, ptr %__begin1.sroa.0.017, i64 96
  %7 = load i32, ptr %mRealUVIndex, align 8
  %cmp10 = icmp eq i32 %7, -1
  %cmp13 = icmp eq i32 %7, %next
  %or.cond9 = or i1 %cmp10, %cmp13
  br i1 %or.cond9, label %if.then14, label %if.else

if.then14:                                        ; preds = %if.then9
  store i32 %next, ptr %mRealUVIndex, align 8
  br label %for.inc

if.else:                                          ; preds = %if.then9
  %call16 = tail call noundef ptr @_ZN6Assimp13DefaultLogger3getEv()
  tail call void @_ZN6Assimp6Logger4warnEPKc(ptr noundef nonnull align 8 dereferenceable(12) %call16, ptr noundef nonnull @.str.36)
  br label %for.inc

for.inc:                                          ; preds = %if.end, %_ZSteqIcEN9__gnu_cxx11__enable_ifIXsr9__is_charIT_EE7__valueEbE6__typeERKNSt7__cxx1112basic_stringIS2_St11char_traitsIS2_ESaIS2_EEESC_.exit, %if.else, %if.then14, %for.body, %lor.lhs.false
  %ret.1 = phi i8 [ 1, %if.then14 ], [ 1, %if.else ], [ %ret.016, %_ZSteqIcEN9__gnu_cxx11__enable_ifIXsr9__is_charIT_EE7__valueEbE6__typeERKNSt7__cxx1112basic_stringIS2_St11char_traitsIS2_ESaIS2_EEESC_.exit ], [ %ret.016, %lor.lhs.false ], [ %ret.016, %for.body ], [ %ret.016, %if.end ]
  %__begin1.sroa.0.0 = load ptr, ptr %__begin1.sroa.0.017, align 8
  %cmp.i.not = icmp eq ptr %__begin1.sroa.0.0, %list
  br i1 %cmp.i.not, label %for.end, label %for.body

for.end:                                          ; preds = %for.inc, %entry
  %ret.0.lcssa = phi i8 [ 0, %entry ], [ %ret.1, %for.inc ]
  ret i8 %ret.0.lcssa
}